target datalayout = "e-m:e-p270:32:32-p271:32:32-p272:64:64-i64:64-i128:128-f80:128-n8:16:32:64-S128"
target triple = "x86_64-pc-linux-gnu"

%"class.cv::FileNode" = type { ptr, i64, i64 }
%"struct.cv::TrackerMIL::Params" = type { float, i32, float, float, i32, i32, i32 }

@.str = private unnamed_addr constant [20 x i8] c"samplerInitInRadius\00", align 1
@.str.1 = private unnamed_addr constant [21 x i8] c"samplerSearchWinSize\00", align 1
@.str.2 = private unnamed_addr constant [21 x i8] c"samplerInitMaxNegNum\00", align 1
@.str.3 = private unnamed_addr constant [21 x i8] c"samplerTrackInRadius\00", align 1
@.str.4 = private unnamed_addr constant [22 x i8] c"samplerTrackMaxPosNum\00", align 1
@.str.5 = private unnamed_addr constant [22 x i8] c"samplerTrackMaxNegNum\00", align 1
@.str.6 = private unnamed_addr constant [22 x i8] c"featureSetNumFeatures\00", align 1

; Function Attrs: mustprogress uwtable
define void @_ZN2cv6legacy8tracking10TrackerMIL6Params4readERKNS_8FileNodeE(ptr noundef nonnull align 4 dereferenceable(28) %0, ptr noundef nonnull align 8 dereferenceable(24) %1) #4 align 2 {
  %3 = alloca ptr, align 8
  %4 = alloca ptr, align 8
  %5 = alloca %"class.cv::FileNode", align 8
  %6 = alloca %"class.cv::FileNode", align 8
  %7 = alloca %"class.cv::FileNode", align 8
  %8 = alloca %"class.cv::FileNode", align 8
  %9 = alloca %"class.cv::FileNode", align 8
  %10 = alloca %"class.cv::FileNode", align 8
  %11 = alloca %"class.cv::FileNode", align 8
  store ptr %0, ptr %3, align 8, !tbaa !3
  store ptr %1, ptr %4, align 8, !tbaa !8
  %12 = load ptr, ptr %3, align 8
  call void @llvm.lifetime.start.p0(i64 24, ptr %5) #3
  %13 = load ptr, ptr %4, align 8, !tbaa !8
  call void @_ZNK2cv8FileNodeixEPKc(ptr dead_on_unwind writable sret(%"class.cv::FileNode") align 8 %5, ptr noundef nonnull align 8 dereferenceable(24) %13, ptr noundef @.str)
  %14 = call noundef float @_ZNK2cv8FileNodecvfEv(ptr noundef nonnull align 8 dereferenceable(24) %5)
  %15 = getelementptr inbounds nuw %"struct.cv::TrackerMIL::Params", ptr %12, i32 0, i32 0
  store float %14, ptr %15, align 4, !tbaa !10
  call void @llvm.lifetime.end.p0(i64 24, ptr %5) #3
  call void @llvm.lifetime.start.p0(i64 24, ptr %6) #3
  %16 = load ptr, ptr %4, align 8, !tbaa !8
  call void @_ZNK2cv8FileNodeixEPKc(ptr dead_on_unwind writable sret(%"class.cv::FileNode") align 8 %6, ptr noundef nonnull align 8 dereferenceable(24) %16, ptr noundef @.str.1)
  %17 = call noundef float @_ZNK2cv8FileNodecvfEv(ptr noundef nonnull align 8 dereferenceable(24) %6)
  %18 = getelementptr inbounds nuw %"struct.cv::TrackerMIL::Params", ptr %12, i32 0, i32 2
  store float %17, ptr %18, align 4, !tbaa !14
  call void @llvm.lifetime.end.p0(i64 24, ptr %6) #3
  call void @llvm.lifetime.start.p0(i64 24, ptr %7) #3
  %19 = load ptr, ptr %4, align 8, !tbaa !8
  call void @_ZNK2cv8FileNodeixEPKc(ptr dead_on_unwind writable sret(%"class.cv::FileNode") align 8 %7, ptr noundef nonnull align 8 dereferenceable(24) %19, ptr noundef @.str.2)
  %20 = call noundef i32 @_ZNK2cv8FileNodecviEv(ptr noundef nonnull align 8 dereferenceable(24) %7)
  %21 = getelementptr inbounds nuw %"struct.cv::TrackerMIL::Params", ptr %12, i32 0, i32 1
  store i32 %20, ptr %21, align 4, !tbaa !15
  call void @llvm.lifetime.end.p0(i64 24, ptr %7) #3
  call void @llvm.lifetime.start.p0(i64 24, ptr %8) #3
  %22 = load ptr, ptr %4, align 8, !tbaa !8
  call void @_ZNK2cv8FileNodeixEPKc(ptr dead_on_unwind writable sret(%"class.cv::FileNode") align 8 %8, ptr noundef nonnull align 8 dereferenceable(24) %22, ptr noundef @.str.3)
  %23 = call noundef float @_ZNK2cv8FileNodecvfEv(ptr noundef nonnull align 8 dereferenceable(24) %8)
  %24 = getelementptr inbounds nuw %"struct.cv::TrackerMIL::Params", ptr %12, i32 0, i32 3
  store float %23, ptr %24, align 4, !tbaa !16
  call void @llvm.lifetime.end.p0(i64 24, ptr %8) #3
  call void @llvm.lifetime.start.p0(i64 24, ptr %9) #3
  %25 = load ptr, ptr %4, align 8, !tbaa !8
  call void @_ZNK2cv8FileNodeixEPKc(ptr dead_on_unwind writable sret(%"class.cv::FileNode") align 8 %9, ptr noundef nonnull align 8 dereferenceable(24) %25, ptr noundef @.str.4)
  %26 = call noundef i32 @_ZNK2cv8FileNodecviEv(ptr noundef nonnull align 8 dereferenceable(24) %9)
  %27 = getelementptr inbounds nuw %"struct.cv::TrackerMIL::Params", ptr %12, i32 0, i32 4
  store i32 %26, ptr %27, align 4, !tbaa !17
  call void @llvm.lifetime.end.p0(i64 24, ptr %9) #3
  call void @llvm.lifetime.start.p0(i64 24, ptr %10) #3
  %28 = load ptr, ptr %4, align 8, !tbaa !8
  call void @_ZNK2cv8FileNodeixEPKc(ptr dead_on_unwind writable sret(%"class.cv::FileNode") align 8 %10, ptr noundef nonnull align 8 dereferenceable(24) %28, ptr noundef @.str.5)
  %29 = call noundef i32 @_ZNK2cv8FileNodecviEv(ptr noundef nonnull align 8 dereferenceable(24) %10)
  %30 = getelementptr inbounds nuw %"struct.cv::TrackerMIL::Params", ptr %12, i32 0, i32 5
  store i32 %29, ptr %30, align 4, !tbaa !18
  call void @llvm.lifetime.end.p0(i64 24, ptr %10) #3
  call void @llvm.lifetime.start.p0(i64 24, ptr %11) #3
  %31 = load ptr, ptr %4, align 8, !tbaa !8
  call void @_ZNK2cv8FileNodeixEPKc(ptr dead_on_unwind writable sret(%"class.cv::FileNode") align 8 %11, ptr noundef nonnull align 8 dereferenceable(24) %31, ptr noundef @.str.6)
  %32 = call noundef i32 @_ZNK2cv8FileNodecviEv(ptr noundef nonnull align 8 dereferenceable(24) %11)
  %33 = getelementptr inbounds nuw %"struct.cv::TrackerMIL::Params", ptr %12, i32 0, i32 6
  store i32 %32, ptr %33, align 4, !tbaa !19
  call void @llvm.lifetime.end.p0(i64 24, ptr %11) #3
  ret void
}