; Function Attrs: mustprogress uwtable
define void @_ZN2cv6legacy8tracking10TrackerMIL6Params4readERKNS_8FileNodeE(ptr noundef nonnull writeonly align 4 captures(none) dereferenceable(28) initializes((0, 28)) %0, ptr noundef nonnull align 8 dereferenceable(24) %1) local_unnamed_addr #3 align 2 {
  %3 = alloca %"class.cv::FileNode", align 8
  %4 = alloca %"class.cv::FileNode", align 8
  %5 = alloca %"class.cv::FileNode", align 8
  %6 = alloca %"class.cv::FileNode", align 8
  %7 = alloca %"class.cv::FileNode", align 8
  %8 = alloca %"class.cv::FileNode", align 8
  %9 = alloca %"class.cv::FileNode", align 8
  call void @llvm.lifetime.start.p0(i64 24, ptr nonnull %3) #21
  call void @_ZNK2cv8FileNodeixEPKc(ptr dead_on_unwind nonnull writable sret(%"class.cv::FileNode") align 8 %3, ptr noundef nonnull align 8 dereferenceable(24) %1, ptr noundef nonnull @.str)
  %10 = call noundef float @_ZNK2cv8FileNodecvfEv(ptr noundef nonnull align 8 dereferenceable(24) %3)
  store float %10, ptr %0, align 4, !tbaa !3
  call void @llvm.lifetime.end.p0(i64 24, ptr nonnull %3) #21
  call void @llvm.lifetime.start.p0(i64 24, ptr nonnull %4) #21
  call void @_ZNK2cv8FileNodeixEPKc(ptr dead_on_unwind nonnull writable sret(%"class.cv::FileNode") align 8 %4, ptr noundef nonnull align 8 dereferenceable(24) %1, ptr noundef nonnull @.str.1)
  %11 = call noundef float @_ZNK2cv8FileNodecvfEv(ptr noundef nonnull align 8 dereferenceable(24) %4)
  %12 = getelementptr inbounds nuw i8, ptr %0, i64 8
  store float %11, ptr %12, align 4, !tbaa !9
  call void @llvm.lifetime.end.p0(i64 24, ptr nonnull %4) #21
  call void @llvm.lifetime.start.p0(i64 24, ptr nonnull %5) #21
  call void @_ZNK2cv8FileNodeixEPKc(ptr dead_on_unwind nonnull writable sret(%"class.cv::FileNode") align 8 %5, ptr noundef nonnull align 8 dereferenceable(24) %1, ptr noundef nonnull @.str.2)
  %13 = call noundef i32 @_ZNK2cv8FileNodecviEv(ptr noundef nonnull align 8 dereferenceable(24) %5)
  %14 = getelementptr inbounds nuw i8, ptr %0, i64 4
  store i32 %13, ptr %14, align 4, !tbaa !10
  call void @llvm.lifetime.end.p0(i64 24, ptr nonnull %5) #21
  call void @llvm.lifetime.start.p0(i64 24, ptr nonnull %6) #21
  call void @_ZNK2cv8FileNodeixEPKc(ptr dead_on_unwind nonnull writable sret(%"class.cv::FileNode") align 8 %6, ptr noundef nonnull align 8 dereferenceable(24) %1, ptr noundef nonnull @.str.3)
  %15 = call noundef float @_ZNK2cv8FileNodecvfEv(ptr noundef nonnull align 8 dereferenceable(24) %6)
  %16 = getelementptr inbounds nuw i8, ptr %0, i64 12
  store float %15, ptr %16, align 4, !tbaa !11
  call void @llvm.lifetime.end.p0(i64 24, ptr nonnull %6) #21
  call void @llvm.lifetime.start.p0(i64 24, ptr nonnull %7) #21
  call void @_ZNK2cv8FileNodeixEPKc(ptr dead_on_unwind nonnull writable sret(%"class.cv::FileNode") align 8 %7, ptr noundef nonnull align 8 dereferenceable(24) %1, ptr noundef nonnull @.str.4)
  %17 = call noundef i32 @_ZNK2cv8FileNodecviEv(ptr noundef nonnull align 8 dereferenceable(24) %7)
  %18 = getelementptr inbounds nuw i8, ptr %0, i64 16
  store i32 %17, ptr %18, align 4, !tbaa !12
  call void @llvm.lifetime.end.p0(i64 24, ptr nonnull %7) #21
  call void @llvm.lifetime.start.p0(i64 24, ptr nonnull %8) #21
  call void @_ZNK2cv8FileNodeixEPKc(ptr dead_on_unwind nonnull writable sret(%"class.cv::FileNode") align 8 %8, ptr noundef nonnull align 8 dereferenceable(24) %1, ptr noundef nonnull @.str.5)
  %19 = call noundef i32 @_ZNK2cv8FileNodecviEv(ptr noundef nonnull align 8 dereferenceable(24) %8)
  %20 = getelementptr inbounds nuw i8, ptr %0, i64 20
  store i32 %19, ptr %20, align 4, !tbaa !13
  call void @llvm.lifetime.end.p0(i64 24, ptr nonnull %8) #21
  call void @llvm.lifetime.start.p0(i64 24, ptr nonnull %9) #21
  call void @_ZNK2cv8FileNodeixEPKc(ptr dead_on_unwind nonnull writable sret(%"class.cv::FileNode") align 8 %9, ptr noundef nonnull align 8 dereferenceable(24) %1, ptr noundef nonnull @.str.6)
  %21 = call noundef i32 @_ZNK2cv8FileNodecviEv(ptr noundef nonnull align 8 dereferenceable(24) %9)
  %22 = getelementptr inbounds nuw i8, ptr %0, i64 24
  store i32 %21, ptr %22, align 4, !tbaa !14
  call void @llvm.lifetime.end.p0(i64 24, ptr nonnull %9) #21
  ret void
}